(lp0
(lp1
S'oomf'
p2
aI50
aI4934
aI158587
aF1.0
aI1
aI49
aI6
acnumpy.core.multiarray
scalar
p3
(cnumpy
dtype
p4
(S'f8'
p5
I0
I1
tp6
Rp7
(I3
S'<'
p8
NNNI-1
I-1
I0
tp9
bS'\x00\x00\x00\x00\x00\x00\x00\x00'
p10
tp11
Rp12
aa(lp13
S'teamfollowback'
p14
aI46
aI4813
aI197355
aF1.7333333333333334
aI3
aI38
aI47
ag3
(g7
S'\x00\x00\x00\x00\x00\x00\x00\x00'
p15
tp16
Rp17
aa(lp18
S'bahrain'
p19
aI29
aI517
aI5884
aF2.6153846153846154
aI5
aI17
aI109
ag3
(g7
S'\x00\x00\x00\x00\x00\x00\x00\x00'
p20
tp21
Rp22
aa(lp23
S'thoughtsduringschool'
p24
aI39
aI2808
aI114080
aF1.3333333333333333
aI2
aI34
aI1093
ag3
(g7
S'\x00\x00\x00\x00\x00\x00\x00\x00'
p25
tp26
Rp27
aa(lp28
S'yolo'
p29
aI48
aI1560
aI65902
a(lp30
aI0
aI47
aI29
ag3
(g7
S'\x00\x00\x00\x00\x00\x00\x00\x00'
p31
tp32
Rp33
aa(lp34
S'dearoomf'
p35
aI42
aI3346
aI132431
aF1.8
aI3
aI33
aI17622
ag3
(g7
S'\x00\x00\x00\x00\x00\x00\x00\x00'
p36
tp37
Rp38
aa(lp39
S'retweet'
p40
aI50
aI5359
aI190911
aF1.0
aI1
aI48
aI59
ag3
(g7
S'\x00\x00\x00\x00\x00\x00\x00\x00'
p41
tp42
Rp43
aa(lp44
S'taurus'
p45
aI47
aI2555
aI126120
a(lp46
aI0
aI46
aI59
ag3
(g7
S'\x00\x00\x00\x00\x00\x00\x00\x00'
p47
tp48
Rp49
aa(lp50
S'followback'
p51
aI45
aI7200
aI211052
aF1.3333333333333333
aI2
aI41
aI75
ag3
(g7
S'\x00\x00\x00\x00\x00\x00\x00\x00'
p52
tp53
Rp54
aa(lp55
S'winning'
p56
aI50
aI2750
aI112269
aF1.0
aI1
aI49
aI67
ag3
(g7
S'\x00\x00\x00\x00\x00\x00\x00\x00'
p57
tp58
Rp59
aa(lp60
S'wheniwaslittle'
p61
aI46
aI3267
aI160085
aF1.0
aI1
aI44
aI16735
ag3
(g7
S'\x00\x00\x00\x00\x00\x00\x00\x00'
p62
tp63
Rp64
aa(lp65
S'capricorn'
p66
aI46
aI2958
aI133078
a(lp67
aI0
aI46
aI13
ag3
(g7
S'\x00\x00\x00\x00\x00\x00\x00\x00'
p68
tp69
Rp70
aa(lp71
S'gemini'
p72
aI43
aI2757
aI131830
aF1.3333333333333333
aI2
aI41
aI144
ag3
(g7
S'\x00\x00\x00\x00\x00\x00\x00\x00'
p73
tp74
Rp75
aa(lp76
S'cancer'
p77
aI46
aI3091
aI130931
aF1.0
aI1
aI43
aI75
ag3
(g7
S'\x00\x00\x00\x00\x00\x00\x00\x00'
p78
tp79
Rp80
aa(lp81
S'shoutout'
p82
aI44
aI4599
aI182879
aF1.0
aI1
aI42
aI129
ag3
(g7
S'\x00\x00\x00\x00\x00\x00\x00\x00'
p83
tp84
Rp85
aa(lp86
S'nowplaying'
p87
aI42
aI1813
aI101461
aF1.3333333333333333
aI2
aI38
aI85
ag3
(g7
S'\x00\x00\x00\x00\x00\x00\x00\x00'
p88
tp89
Rp90
aa(lp91
S'aries'
p92
aI40
aI2007
aI119517
a(lp93
aI0
aI39
aI70
ag3
(g7
S'\x00\x00\x00\x00\x00\x00\x00\x00'
p94
tp95
Rp96
aa(lp97
S'imagine'
p98
aI44
aI3646
aI63755
aF1.8
aI3
aI32
aI206
ag3
(g7
S'\x00\x00\x00\x00\x00\x00\x00\x00'
p99
tp100
Rp101
aa(lp102
S'pisces'
p103
aI46
aI2188
aI117180
aF1.0
aI1
aI44
aI125
ag3
(g7
S'\x00\x00\x00\x00\x00\x00\x00\x00'
p104
tp105
Rp106
aa(lp107
S'20thingsilove'
p108
aI39
aI1887
aI101556
aF1.3333333333333333
aI2
aI34
aI50
ag3
(g7
S'\x00\x00\x00\x00\x00\x00\x00\x00'
p109
tp110
Rp111
aa(lp112
S'sagittarius'
p113
aI47
aI3009
aI145788
a(lp114
aI0
aI46
aI87
ag3
(g7
S'\x00\x00\x00\x00\x00\x00\x00\x00'
p115
tp116
Rp117
aa(lp118
S'virgo'
p119
aI49
aI3568
aI155806
a(lp120
aI0
aI49
aI127
ag3
(g7
S'\x00\x00\x00\x00\x00\x00\x00\x00'
p121
tp122
Rp123
aa(lp124
S'dailytweet'
p125
aI49
aI4901
aI168100
aF1.0
aI1
aI45
aI169
ag3
(g7
S'\x00\x00\x00\x00\x00\x00\x00\x00'
p126
tp127
Rp128
aa(lp129
S'boyfriend'
p130
aI45
aI4609
aI68476
aF3.320261437908497
aI7
aI30
aI108
ag3
(g7
S'\x00\x00\x00\x00\x00\x00\x00\x00'
p131
tp132
Rp133
aa(lp134
S'scorpio'
p135
aI49
aI3183
aI132684
a(lp136
aI0
aI49
aI116
ag3
(g7
S'\x00\x00\x00\x00\x00\x00\x00\x00'
p137
tp138
Rp139
aa(lp140
S'follow'
p141
aI38
aI5009
aI191808
aF2.1333333333333333
aI4
aI31
aI126
ag3
(g7
S'\x00\x00\x00\x00\x00\x00\x00\x00'
p142
tp143
Rp144
aa(lp145
S'aquarius'
p146
aI50
aI3155
aI144942
aF1.0
aI1
aI49
aI193
ag3
(g7
S'\x00\x00\x00\x00\x00\x00\x00\x00'
p147
tp148
Rp149
aa(lp150
S'thingsigetalot'
p151
aI45
aI2329
aI117340
aF1.7272727272727273
aI4
aI34
aI32
ag3
(g7
S'\x00\x00\x00\x00\x00\x00\x00\x00'
p152
tp153
Rp154
aa(lp155
S'fact'
p156
aI49
aI3589
aI153092
aF1.0
aI1
aI47
aI141
ag3
(g7
S'\x00\x00\x00\x00\x00\x00\x00\x00'
p157
tp158
Rp159
aa(lp160
S'libra'
p161
aI46
aI2804
aI144344
aF1.0
aI1
aI45
aI151
ag3
(g7
S'\x00\x00\x00\x00\x00\x00\x00\x00'
p162
tp163
Rp164
aa(lp165
S'10factsaboutme'
p166
aI40
aI2561
aI86095
aF1.0
aI1
aI34
aI22645
ag3
(g7
S'\x00\x00\x00\x00\x00\x00\x00\x00'
p167
tp168
Rp169
aa(lp170
S'yougetmajorpointsif'
p171
aI47
aI1120
aI32921
aF1.7333333333333334
aI3
aI38
aI132
ag3
(g7
S'\x00\x00\x00\x00\x00\x00\x00\x00'
p172
tp173
Rp174
aa(lp175
S'yougetpointsif'
p176
aI36
aI935
aI21337
aF2.3593073593073592
aI5
aI15
aI136
ag3
(g7
S'\x00\x00\x00\x00\x00\x00\x00\x00'
p177
tp178
Rp179
aa(lp180
S'10thingsifindattractive'
p181
aI40
aI2956
aI142439
aF1.5714285714285714
aI3
aI24
aI31346
ag3
(g7
S'\x00\x00\x00\x00\x00\x00\x00\x00'
p182
tp183
Rp184
aa(lp185
S'middleschoolmemories'
p186
aI38
aI1055
aI61531
aF2.2333333333333334
aI5
aI17
aI6933
ag3
(g7
S'\x00\x00\x00\x00\x00\x00\x00\x00'
p187
tp188
Rp189
aa(lp190
S'nowfollowing'
p191
aI48
aI6769
aI208497
aF1.0
aI1
aI45
aI166
ag3
(g7
S'\x00\x00\x00\x00\x00\x00\x00\x00'
p192
tp193
Rp194
aa(lp195
S'salute'
p196
aI50
aI6370
aI202933
aF2.2222222222222223
aI4
aI41
aI128
ag3
(g7
S'\x00\x00\x00\x00\x00\x00\x00\x00'
p197
tp198
Rp199
aa(lp200
S'top100lies'
p201
aI46
aI2565
aI115751
aF2.0952380952380953
aI4
aI38
aI9501
ag3
(g7
S'\x00\x00\x00\x00\x00\x00\x00\x00'
p202
tp203
Rp204
aa(lp205
S'truthis'
p206
aI37
aI2229
aI112485
aF1.3333333333333333
aI2
aI34
aI7959
ag3
(g7
S'\x00\x00\x00\x00\x00\x00\x00\x00'
p207
tp208
Rp209
aa(lp210
S'tcot'
p211
aI38
aI1752
aI20881
aF3.2367816091954023
aI8
aI12
aI201
ag3
(g7
S'\x00\x00\x00\x00\x00\x00\x00\x00'
p212
tp213
Rp214
aa(lp215
S'dead'
p216
aI49
aI3714
aI141788
aF1.0
aI1
aI48
aI172
ag3
(g7
S'\x00\x00\x00\x00\x00\x00\x00\x00'
p217
tp218
Rp219
aa(lp220
S'mythoughtsduringschool'
p221
aI42
aI2945
aI154173
aF1.0
aI1
aI39
aI419
ag3
(g7
S'\x00\x00\x00\x00\x00\x00\x00\x00'
p222
tp223
Rp224
aa(lp225
S'nationalbestfriendday'
p226
aI46
aI1646
aI54475
aF1.3333333333333333
aI2
aI39
aI2037
ag3
(g7
S'\x00\x00\x00\x00\x00\x00\x00\x00'
p227
tp228
Rp229
aa(lp230
S'theworstfeeling'
p231
aI47
aI2758
aI128048
aF1.0
aI1
aI44
aI25802
ag3
(g7
S'\x00\x00\x00\x00\x00\x00\x00\x00'
p232
tp233
Rp234
aa(lp235
S'syria'
p236
aI37
aI775
aI10404
aF2.1904761904761907
aI4
aI26
aI369
ag3
(g7
S'\x00\x00\x00\x00\x00\x00\x00\x00'
p237
tp238
Rp239
aa(lp240
S'blessed'
p241
aI50
aI4058
aI171651
aF1.0
aI1
aI47
aI514
ag3
(g7
S'\x00\x00\x00\x00\x00\x00\x00\x00'
p242
tp243
Rp244
aa(lp245
S'aquarians'
p246
aI49
aI2602
aI118601
aF1.0
aI1
aI47
aI959
ag3
(g7
S'\x00\x00\x00\x00\x00\x00\x00\x00'
p247
tp248
Rp249
aa(lp250
S'icantstandwhen'
p251
aI23
aI2678
aI141738
aF1.2549019607843137
aI2
aI6
aI12952
ag3
(g7
S'\x00\x00\x00\x00\x00\x00\x00\x00'
p252
tp253
Rp254
aa(lp255
S'tweegram'
p256
aI49
aI4908
aI156299
aF1.0
aI1
aI45
aI206
ag3
(g7
S'\x00\x00\x00\x00\x00\x00\x00\x00'
p257
tp258
Rp259
aa(lp260
S'subtweet'
p261
aI45
aI3234
aI141661
aF1.0
aI1
aI41
aI161
ag3
(g7
S'\x00\x00\x00\x00\x00\x00\x00\x00'
p262
tp263
Rp264
aa(lp265
S'iadmit'
p266
aI32
aI1926
aI97811
aF1.9444444444444444
aI4
aI21
aI13799
ag3
(g7
S'\x00\x00\x00\x00\x00\x00\x00\x00'
p267
tp268
Rp269
aa(lp270
S'justsaying'
p271
aI49
aI4258
aI166901
aF1.0
aI1
aI47
aI163
ag3
(g7
S'\x00\x00\x00\x00\x00\x00\x00\x00'
p272
tp273
Rp274
aa(lp275
S'inourgeneration'
p276
aI31
aI1768
aI76175
aF1.9615384615384615
aI4
aI20
aI9272
ag3
(g7
S'\x00\x00\x00\x00\x00\x00\x00\x00'
p277
tp278
Rp279
aa(lp280
S'realtalk'
p281
aI50
aI2512
aI119565
aF1.0
aI1
aI49
aI229
ag3
(g7
S'\x00\x00\x00\x00\x00\x00\x00\x00'
p282
tp283
Rp284
aa(lp285
S'moviesthatnevergetold'
p286
aI46
aI2933
aI148060
aF1.0
aI1
aI44
aI23746
ag3
(g7
S'\x00\x00\x00\x00\x00\x00\x00\x00'
p287
tp288
Rp289
aa(lp290
S'thingsisaywhilereadingmytl'
p291
aI40
aI3304
aI150408
aF1.3333333333333333
aI2
aI37
aI23
ag3
(g7
S'\x00\x00\x00\x00\x00\x00\x00\x00'
p292
tp293
Rp294
aa(lp295
S'random'
p296
aI50
aI4594
aI178773
aF1.0
aI1
aI48
aI150
ag3
(g7
S'\x00\x00\x00\x00\x00\x00\x00\x00'
p297
tp298
Rp299
aa(lp300
S'mybiggestproblem'
p301
aI42
aI3097
aI142831
aF2.3777777777777778
aI5
aI31
aI9244
ag3
(g7
S'\x00\x00\x00\x00\x00\x00\x00\x00'
p302
tp303
Rp304
aa(lp305
S'love'
p306
aI49
aI2211
aI104388
aF1.0
aI1
aI46
aI206
ag3
(g7
S'\x00\x00\x00\x00\x00\x00\x00\x00'
p307
tp308
Rp309
aa(lp310
S'throwbackthursday'
p311
aI49
aI5164
aI162263
aF1.2
aI2
aI43
aI8866
ag3
(g7
S'\x00\x00\x00\x00\x00\x00\x00\x00'
p312
tp313
Rp314
aa(lp315
S'teamiphone'
p316
aI50
aI4184
aI168879
aF1.0
aI1
aI47
aI194
ag3
(g7
S'\x00\x00\x00\x00\x00\x00\x00\x00'
p317
tp318
Rp319
aa(lp320
S'truth'
p321
aI50
aI1839
aI111436
a(lp322
aI0
aI48
aI225
ag3
(g7
S'\x00\x00\x00\x00\x00\x00\x00\x00'
p323
tp324
Rp325
aa(lp326
S'thingsmostpeoplelikebutidont'
p327
aI43
aI2036
aI105073
aF1.6666666666666667
aI3
aI39
aI25
ag3
(g7
S'\x00\x00\x00\x00\x00\x00\x00\x00'
p328
tp329
Rp330
aa(lp331
S'oomfs'
p332
aI49
aI3317
aI131595
aF1.0
aI1
aI42
aI164
ag3
(g7
S'\x00\x00\x00\x00\x00\x00\x00\x00'
p333
tp334
Rp335
aa(lp336
S'imsinglebecause'
p337
aI39
aI1389
aI74770
aF2.0588235294117645
aI4
aI17
aI14750
ag3
(g7
S'\x00\x00\x00\x00\x00\x00\x00\x00'
p338
tp339
Rp340
aa(lp341
S'goodnight'
p342
aI49
aI2482
aI122411
a(lp343
aI0
aI49
aI249
ag3
(g7
S'\x00\x00\x00\x00\x00\x00\x00\x00'
p344
tp345
Rp346
aa(lp347
S'sorrynotsorry'
p348
aI50
aI2056
aI78155
aF1.0
aI1
aI49
aI241
ag3
(g7
S'\x00\x00\x00\x00\x00\x00\x00\x00'
p349
tp350
Rp351
aa(lp352
S'thatirritatesme'
p353
aI43
aI3187
aI149074
aF1.0
aI1
aI40
aI16
ag3
(g7
S'\x00\x00\x00\x00\x00\x00\x00\x00'
p354
tp355
Rp356
aa(lp357
S'trayvonmartin'
p358
aI49
aI3021
aI136617
aF1.5
aI2
aI42
aI42
ag3
(g7
S'\x00\x00\x00\x00\x00\x00\x00\x00'
p359
tp360
Rp361
aa(lp362
S'swag'
p363
aI50
aI5102
aI176066
aF1.0
aI1
aI48
aI191
ag3
(g7
S'\x00\x00\x00\x00\x00\x00\x00\x00'
p364
tp365
Rp366
aa(lp367
S'500aday'
p368
aI38
aI3761
aI176499
aF1.0
aI1
aI36
aI192
ag3
(g7
S'\x00\x00\x00\x00\x00\x00\x00\x00'
p369
tp370
Rp371
aa(lp372
S'10thingsthatilike'
p373
aI43
aI1205
aI56252
a(lp374
aI0
aI42
aI31
ag3
(g7
S'\x00\x00\x00\x00\x00\x00\x00\x00'
p375
tp376
Rp377
aa(lp378
S'free'
p379
aI45
aI4732
aI152723
aF1.8
aI3
aI36
aI364
ag3
(g7
S'\x00\x00\x00\x00\x00\x00\x00\x00'
p380
tp381
Rp382
aa(lp383
S'ifitwasuptome'
p384
aI48
aI2706
aI124601
aF1.0
aI1
aI45
aI2244
ag3
(g7
S'\x00\x00\x00\x00\x00\x00\x00\x00'
p385
tp386
Rp387
aa(lp388
S'youknowwhatsannoying'
p389
aI49
aI2525
aI118744
aF1.0
aI1
aI48
aI14
ag3
(g7
S'\x00\x00\x00\x00\x00\x00\x00\x00'
p390
tp391
Rp392
aa(lp393
S'believe'
p394
aI44
aI4277
aI67574
aF2.1333333333333333
aI4
aI33
aI500
ag3
(g7
S'\x00\x00\x00\x00\x00\x00\x00\x00'
p395
tp396
Rp397
aa(lp398
S'confessionhour'
p399
aI31
aI1453
aI90782
aF2.1
aI5
aI11
aI5419
ag3
(g7
S'\x00\x00\x00\x00\x00\x00\x00\x00'
p400
tp401
Rp402
aa(lp403
S'10thingsihate'
p404
aI41
aI2298
aI103094
aF1.5
aI2
aI34
aI19679
ag3
(g7
S'\x00\x00\x00\x00\x00\x00\x00\x00'
p405
tp406
Rp407
aa(lp408
S'gnation'
p409
aI20
aI3027
aI152846
aF1.6470588235294117
aI3
aI4
aI351
ag3
(g7
S'\x00\x00\x00\x00\x00\x00\x00\x00'
p410
tp411
Rp412
aa(lp413
S'instagram'
p414
aI48
aI4118
aI176841
aF1.3333333333333333
aI2
aI44
aI1417
ag3
(g7
S'\x00\x00\x00\x00\x00\x00\x00\x00'
p415
tp416
Rp417
aa(lp418
S'realshit'
p419
aI50
aI4292
aI169004
aF1.0
aI1
aI47
aI164
ag3
(g7
S'\x00\x00\x00\x00\x00\x00\x00\x00'
p420
tp421
Rp422
aa(lp423
S'virgos'
p424
aI41
aI3619
aI153740
aF1.5
aI2
aI36
aI350
ag3
(g7
S'\x00\x00\x00\x00\x00\x00\x00\x00'
p425
tp426
Rp427
aa(lp428
S'wewontworkoutif'
p429
aI50
aI2600
aI133666
aF1.0
aI1
aI48
aI24
ag3
(g7
S'\x00\x00\x00\x00\x00\x00\x00\x00'
p430
tp431
Rp432
aa(lp433
S'twitterpeopleilove'
p434
aI41
aI2770
aI82840
aF1.0
aI1
aI39
aI47917
ag3
(g7
S'\x00\x00\x00\x00\x00\x00\x00\x00'
p435
tp436
Rp437
aa(lp438
S'egypt'
p439
aI38
aI946
aI9896
aF1.0
aI1
aI32
aI463
ag3
(g7
S'\x00\x00\x00\x00\x00\x00\x00\x00'
p440
tp441
Rp442
aa(lp443
S'thingsigottateachmyson'
p444
aI44
aI2262
aI107935
aF1.0
aI1
aI42
aI60
ag3
(g7
S'\x00\x00\x00\x00\x00\x00\x00\x00'
p445
tp446
Rp447
aa(lp448
S'imhappywhen'
p449
aI34
aI1621
aI101568
aF1.6666666666666667
aI3
aI26
aI50602
ag3
(g7
S'\x00\x00\x00\x00\x00\x00\x00\x00'
p450
tp451
Rp452
aa(lp453
S'followme'
p454
aI40
aI3480
aI163654
a(lp455
aI0
aI40
aI267
ag3
(g7
S'\x00\x00\x00\x00\x00\x00\x00\x00'
p456
tp457
Rp458
aa(lp459
S'aprilfools'
p460
aI50
aI1666
aI80695
a(lp461
aI0
aI50
aI12790
ag3
(g7
S'\x00\x00\x00\x00\x00\x00\x00\x00'
p462
tp463
Rp464
aa(lp465
S'itscutewhen'
p466
aI40
aI1292
aI49240
aF2.1082251082251084
aI4
aI20
aI27737
ag3
(g7
S'\x00\x00\x00\x00\x00\x00\x00\x00'
p467
tp468
Rp469
aa(lp470
S'ifindthatattractive'
p471
aI48
aI2905
aI136696
aF1.0
aI1
aI47
aI11
ag3
(g7
S'\x00\x00\x00\x00\x00\x00\x00\x00'
p472
tp473
Rp474
aa(lp475
S'libras'
p476
aI48
aI3630
aI150845
a(lp477
aI0
aI48
aI45
ag3
(g7
S'\x00\x00\x00\x00\x00\x00\x00\x00'
p478
tp479
Rp480
aa(lp481
S'fail'
p482
aI49
aI2504
aI119355
aF1.0
aI1
aI48
aI290
ag3
(g7
S'\x00\x00\x00\x00\x00\x00\x00\x00'
p483
tp484
Rp485
aa(lp486
S'2omf'
p487
aI49
aI5319
aI172968
aF1.0
aI1
aI45
aI299
ag3
(g7
S'\x00\x00\x00\x00\x00\x00\x00\x00'
p488
tp489
Rp490
aa(lp491
S'weirdfactaboutme'
p492
aI45
aI1991
aI82247
aF2.4822134387351777
aI6
aI25
aI11114
ag3
(g7
S'\x00\x00\x00\x00\x00\x00\x00\x00'
p493
tp494
Rp495
aa(lp496
S'thevoiceuk'
p497
aI38
aI1735
aI47926
aF2.0606060606060606
aI4
aI26
aI1350
ag3
(g7
S'\x00\x00\x00\x00\x00\x00\x00\x00'
p498
tp499
Rp500
aa(lp501
S'ohwell'
p502
aI50
aI1569
aI70942
a(lp503
aI0
aI48
aI305
ag3
(g7
S'\x00\x00\x00\x00\x00\x00\x00\x00'
p504
tp505
Rp506
aa(lp507
S'thuglife'
p508
aI50
aI4247
aI171788
aF1.0
aI1
aI45
aI255
ag3
(g7
S'\x00\x00\x00\x00\x00\x00\x00\x00'
p509
tp510
Rp511
aa(lp512
S'instantfollowback'
p513
aI39
aI3681
aI169393
aF1.0
aI1
aI37
aI277
ag3
(g7
S'\x00\x00\x00\x00\x00\x00\x00\x00'
p514
tp515
Rp516
aa(lp517
S'1dfact'
p518
aI38
aI2130
aI46828
aF1.0
aI1
aI34
aI503
ag3
(g7
S'\x00\x00\x00\x00\x00\x00\x00\x00'
p519
tp520
Rp521
aa(lp522
S'mythoughtsduringsex'
p523
aI44
aI3858
aI179342
aF1.0
aI1
aI42
aI8995
ag3
(g7
S'\x00\x00\x00\x00\x00\x00\x00\x00'
p524
tp525
Rp526
aa(lp527
S'14feb'
p528
aI36
aI397
aI2466
aF2.1363636363636362
aI4
aI19
aI567
ag3
(g7
S'\x00\x00\x00\x00\x00\x00\x00\x00'
p529
tp530
Rp531
aa(lp532
S'mustfollow'
p533
aI29
aI4331
aI185406
aF1.0
aI1
aI28
aI261
ag3
(g7
S'\x00\x00\x00\x00\x00\x00\x00\x00'
p534
tp535
Rp536
aa(lp537
S'cancers'
p538
aI45
aI5303
aI187786
aF1.0
aI1
aI42
aI1154
ag3
(g7
S'\x00\x00\x00\x00\x00\x00\x00\x00'
p539
tp540
Rp541
aa(lp542
S'imsickof'
p543
aI43
aI2164
aI117155
aF1.3333333333333333
aI2
aI39
aI18301
ag3
(g7
S'\x00\x00\x00\x00\x00\x00\x00\x00'
p544
tp545
Rp546
aa(lp547
S'waystomakemehappy'
p548
aI47
aI1732
aI91118
a(lp549
aI0
aI47
aI18935
ag3
(g7
S'\x00\x00\x00\x00\x00\x00\x00\x00'
p550
tp551
Rp552
aa(lp553
S'birthdaytweet'
p554
aI48
aI5389
aI158522
aF1.3333333333333333
aI2
aI42
aI507
ag3
(g7
S'\x00\x00\x00\x00\x00\x00\x00\x00'
p555
tp556
Rp557
aa(lp558
S'justrememberthat'
p559
aI47
aI2613
aI110041
a(lp560
aI0
aI47
aI51667
ag3
(g7
S'\x00\x00\x00\x00\x00\x00\x00\x00'
p561
tp562
Rp563
aa(lp564
S'10peopleontwitteriwanttomeet'
p565
aI43
aI3580
aI62919
aF1.3333333333333333
aI2
aI39
aI34
ag3
(g7
S'\x00\x00\x00\x00\x00\x00\x00\x00'
p566
tp567
Rp568
aa(lp569
S'whatgetsmemad'
p570
aI39
aI2278
aI101092
aF1.5
aI2
aI31
aI18174
ag3
(g7
S'\x00\x00\x00\x00\x00\x00\x00\x00'
p571
tp572
Rp573
aa(lp574
S'justsayin'
p575
aI50
aI2913
aI125406
aF1.0
aI1
aI49
aI327
ag3
(g7
S'\x00\x00\x00\x00\x00\x00\x00\x00'
p576
tp577
Rp578
aa(lp579
S'teamsingle'
p580
aI50
aI5479
aI183674
a(lp581
aI0
aI50
aI265
ag3
(g7
S'\x00\x00\x00\x00\x00\x00\x00\x00'
p582
tp583
Rp584
aa(lp585
S'sadtweet'
p586
aI50
aI2181
aI97865
a(lp587
aI0
aI50
aI309
ag3
(g7
S'\x00\x00\x00\x00\x00\x00\x00\x00'
p588
tp589
Rp590
aa(lp591
S'goodmorning'
p592
aI48
aI3768
aI175472
aF1.0
aI1
aI45
aI827
ag3
(g7
S'\x00\x00\x00\x00\x00\x00\x00\x00'
p593
tp594
Rp595
aa(lp596
S'fourwordsyoudontwanttohear'
p597
aI49
aI2731
aI141364
aF1.0
aI1
aI48
aI13
ag3
(g7
S'\x00\x00\x00\x00\x00\x00\x00\x00'
p598
tp599
Rp600
aa(lp601
S'scorpios'
p602
aI48
aI3382
aI158511
a(lp603
aI0
aI48
aI322
ag3
(g7
S'\x00\x00\x00\x00\x00\x00\x00\x00'
p604
tp605
Rp606
aa(lp607
S'whatmakesmesmile'
p608
aI42
aI3150
aI148842
aF1.0
aI1
aI41
aI25171
ag3
(g7
S'\x00\x00\x00\x00\x00\x00\x00\x00'
p609
tp610
Rp611
aa(lp612
S'thingsthatilike'
p613
aI49
aI1950
aI104822
a(lp614
aI0
aI49
aI1039
ag3
(g7
S'\x00\x00\x00\x00\x00\x00\x00\x00'
p615
tp616
Rp617
aa(lp618
S'4wordsyoudontwanttohear'
p619
aI45
aI2338
aI121794
aF1.0
aI1
aI44
aI2965
ag3
(g7
S'\x00\x00\x00\x00\x00\x00\x00\x00'
p620
tp621
Rp622
aa(lp623
S'lolatgirlswho'
p624
aI47
aI2469
aI157546
aF1.0
aI1
aI44
aI20
ag3
(g7
S'\x00\x00\x00\x00\x00\x00\x00\x00'
p625
tp626
Rp627
aa(lp628
S'reasonswedonttalkanymore'
p629
aI44
aI2746
aI142657
aF1.6666666666666667
aI3
aI39
aI11
ag3
(g7
S'\x00\x00\x00\x00\x00\x00\x00\x00'
p630
tp631
Rp632
aa(lp633
S'1omf'
p634
aI46
aI4110
aI119057
aF2.6222222222222222
aI5
aI34
aI250
ag3
(g7
S'\x00\x00\x00\x00\x00\x00\x00\x00'
p635
tp636
Rp637
aa(lp638
S'teamlesbian'
p639
aI44
aI5786
aI186534
aF2.675268817204301
aI5
aI19
aI343
ag3
(g7
S'\x00\x00\x00\x00\x00\x00\x00\x00'
p640
tp641
Rp642
aa(lp643
S'foreveralone'
p644
aI49
aI2447
aI118267
aF1.0
aI1
aI48
aI214
ag3
(g7
S'\x00\x00\x00\x00\x00\x00\x00\x00'
p645
tp646
Rp647
aa(lp648
S'sheaintwifeymaterial'
p649
aI35
aI2103
aI118529
aF1.7820512820512822
aI3
aI22
aI17389
ag3
(g7
S'\x00\x00\x00\x00\x00\x00\x00\x00'
p650
tp651
Rp652
aa(lp653
S'followfriday'
p654
aI43
aI4540
aI161832
aF2.010989010989011
aI5
aI25
aI99
ag3
(g7
S'\x00\x00\x00\x00\x00\x00\x00\x00'
p655
tp656
Rp657
aa(lp658
S'iwanttopunchpeoplewho'
p659
aI47
aI2128
aI105397
aF1.3333333333333333
aI2
aI43
aI34
ag3
(g7
S'\x00\x00\x00\x00\x00\x00\x00\x00'
p660
tp661
Rp662
aa(lp663
S'youknowwhatannoysme'
p664
aI48
aI2651
aI127757
aF1.0
aI1
aI45
aI27099
ag3
(g7
S'\x00\x00\x00\x00\x00\x00\x00\x00'
p665
tp666
Rp667
aa(lp668
S'findsomeonewho'
p669
aI48
aI4740
aI201892
aF1.0
aI1
aI47
aI16
ag3
(g7
S'\x00\x00\x00\x00\x00\x00\x00\x00'
p670
tp671
Rp672
aa(lp673
S'bizitalk'
p674
aI18
aI495
aI9550
aF1.4926470588235294
aI3
aI2
aI3482
ag3
(g7
S'\x00\x00\x00\x00\x00\x00\x00\x00'
p675
tp676
Rp677
aa(lp678
S'ididnttextyouback'
p679
aI47
aI2756
aI135002
aF1.0
aI1
aI46
aI8
ag3
(g7
S'\x00\x00\x00\x00\x00\x00\x00\x00'
p680
tp681
Rp682
aa(lp683
S'thingspeopledothatgetonmynerves'
p684
aI48
aI1912
aI100627
aF1.3333333333333333
aI2
aI46
aI7
ag3
(g7
S'\x00\x00\x00\x00\x00\x00\x00\x00'
p685
tp686
Rp687
aa(lp688
S'stayawayfrommeif'
p689
aI47
aI2877
aI146453
aF1.0
aI1
aI45
aI17
ag3
(g7
S'\x00\x00\x00\x00\x00\x00\x00\x00'
p690
tp691
Rp692
aa(lp693
S'thatdepressingmoment'
p694
aI50
aI2212
aI96324
a(lp695
aI0
aI50
aI37717
ag3
(g7
S'\x00\x00\x00\x00\x00\x00\x00\x00'
p696
tp697
Rp698
aa(lp699
S'damn'
p700
aI50
aI2956
aI128383
aF1.0
aI1
aI48
aI286
ag3
(g7
S'\x00\x00\x00\x00\x00\x00\x00\x00'
p701
tp702
Rp703
aa(lp704
S'icantdatesomeonethat'
p705
aI41
aI2568
aI138007
aF1.5333333333333334
aI3
aI34
aI57
ag3
(g7
S'\x00\x00\x00\x00\x00\x00\x00\x00'
p706
tp707
Rp708
aa(lp709
S'teamheat'
p710
aI46
aI4031
aI167032
aF1.0
aI1
aI44
aI229
ag3
(g7
S'\x00\x00\x00\x00\x00\x00\x00\x00'
p711
tp712
Rp713
aa(lp714
S'1dfacts'
p715
aI35
aI1417
aI35878
aF1.6
aI2
aI24
aI465
ag3
(g7
S'\x00\x00\x00\x00\x00\x00\x00\x00'
p716
tp717
Rp718
aa(lp719
S'reasonsthatimsingle'
p720
aI49
aI3102
aI159267
aF1.0
aI1
aI47
aI8
ag3
(g7
S'\x00\x00\x00\x00\x00\x00\x00\x00'
p721
tp722
Rp723
aa(lp724
S'classic'
p725
aI50
aI3986
aI157730
aF1.0
aI1
aI49
aI279
ag3
(g7
S'\x00\x00\x00\x00\x00\x00\x00\x00'
p726
tp727
Rp728
aa(lp729
S'turnup'
p730
aI49
aI5144
aI163255
aF1.3333333333333333
aI2
aI42
aI286
ag3
(g7
S'\x00\x00\x00\x00\x00\x00\x00\x00'
p731
tp732
Rp733
aa(lp734
S'soundcloud'
p735
aI42
aI2768
aI133733
aF1.0
aI1
aI38
aI995
ag3
(g7
S'\x00\x00\x00\x00\x00\x00\x00\x00'
p736
tp737
Rp738
aa(lp739
S'twothingsthatdontmix'
p740
aI47
aI2855
aI143917
aF1.0
aI1
aI45
aI35833
ag3
(g7
S'\x00\x00\x00\x00\x00\x00\x00\x00'
p741
tp742
Rp743
aa(lp744
S'incollege'
p745
aI43
aI2081
aI109046
aF2.5047619047619047
aI5
aI28
aI22930
ag3
(g7
S'\x00\x00\x00\x00\x00\x00\x00\x00'
p746
tp747
Rp748
aa(lp749
S'howtopissafemaleoff'
p750
aI47
aI2404
aI128528
aF1.0
aI1
aI46
aI27
ag3
(g7
S'\x00\x00\x00\x00\x00\x00\x00\x00'
p751
tp752
Rp753
aa(lp754
S'ssnation'
p755
aI20
aI2548
aI137401
aF1.6198830409356726
aI3
aI2
aI304
ag3
(g7
S'\x00\x00\x00\x00\x00\x00\x00\x00'
p756
tp757
Rp758
aa(lp759
S'throwback'
p760
aI47
aI2705
aI127324
aF1.3333333333333333
aI2
aI44
aI302
ag3
(g7
S'\x00\x00\x00\x00\x00\x00\x00\x00'
p761
tp762
Rp763
aa(lp764
S'muchlove'
p765
aI49
aI3063
aI133354
aF1.0
aI1
aI46
aI616
ag3
(g7
S'\x00\x00\x00\x00\x00\x00\x00\x00'
p766
tp767
Rp768
aa(lp769
S'itstimeforyoutorealize'
p770
aI50
aI4611
aI197565
aF1.6666666666666667
aI3
aI44
aI38384
ag3
(g7
S'\x00\x00\x00\x00\x00\x00\x00\x00'
p771
tp772
Rp773
aa(lp774
S'turnon'
p775
aI46
aI3676
aI170511
aF1.0
aI1
aI44
aI976
ag3
(g7
S'\x00\x00\x00\x00\x00\x00\x00\x00'
p776
tp777
Rp778
aa(lp779
S'iknowthisonegirl'
p780
aI45
aI1735
aI104743
aF1.5777777777777777
aI3
aI36
aI14
ag3
(g7
S'\x00\x00\x00\x00\x00\x00\x00\x00'
p781
tp782
Rp783
aa(lp784
S'icantlivewithout'
p785
aI47
aI3179
aI149756
aF1.0
aI1
aI44
aI12248
ag3
(g7
S'\x00\x00\x00\x00\x00\x00\x00\x00'
p786
tp787
Rp788
aa(lp789
S'ritz2'
p790
aI18
aI2076
aI98608
aF2.045751633986928
aI4
aI1
aI34
ag3
(g7
S'\x00\x00\x00\x00\x00\x00\x00\x00'
p791
tp792
Rp793
aa(lp794
S'thingsthatfrustrateme'
p795
aI41
aI1520
aI87599
a(lp796
aI0
aI41
aI31828
ag3
(g7
S'\x00\x00\x00\x00\x00\x00\x00\x00'
p797
tp798
Rp799
aa(lp800
S'twitterafterdark'
p801
aI44
aI3366
aI155067
aF1.0
aI1
aI42
aI397
ag3
(g7
S'\x00\x00\x00\x00\x00\x00\x00\x00'
p802
tp803
Rp804
aa(lp805
S'hotpeopleifollow'
p806
aI45
aI4295
aI147018
aF1.0
aI1
aI40
aI37
ag3
(g7
S'\x00\x00\x00\x00\x00\x00\x00\x00'
p807
tp808
Rp809
aa(lp810
S'thatawkwardmoment'
p811
aI50
aI2739
aI140446
a(lp812
aI0
aI49
aI476
ag3
(g7
S'\x00\x00\x00\x00\x00\x00\x00\x00'
p813
tp814
Rp815
aa(lp816
S'showerflow'
p817
aI50
aI3110
aI142778
a(lp818
aI0
aI50
aI931
ag3
(g7
S'\x00\x00\x00\x00\x00\x00\x00\x00'
p819
tp820
Rp821
aa(lp822
S'wordsyouwillneverhearmesay'
p823
aI49
aI3785
aI138343
aF1.3
aI2
aI44
aI51118
ag3
(g7
S'\x00\x00\x00\x00\x00\x00\x00\x00'
p824
tp825
Rp826
aa(lp827
S'morefemalesshould'
p828
aI45
aI3762
aI167872
aF1.3333333333333333
aI2
aI42
aI102
ag3
(g7
S'\x00\x00\x00\x00\x00\x00\x00\x00'
p829
tp830
Rp831
aa(lp832
S'respect'
p833
aI50
aI3426
aI140517
aF1.0
aI1
aI49
aI238
ag3
(g7
S'\x00\x00\x00\x00\x00\x00\x00\x00'
p834
tp835
Rp836
aa(lp837
S'nowthatimolder'
p838
aI45
aI2804
aI120881
aF2.2857142857142856
aI5
aI34
aI10944
ag3
(g7
S'\x00\x00\x00\x00\x00\x00\x00\x00'
p839
tp840
Rp841
aa(lp842
S'iwantsomebody'
p843
aI46
aI3096
aI133655
aF1.0
aI1
aI45
aI1036
ag3
(g7
S'\x00\x00\x00\x00\x00\x00\x00\x00'
p844
tp845
Rp846
aa(lp847
S'teamautofollow'
p848
aI37
aI3759
aI161907
aF1.0
aI1
aI35
aI334
ag3
(g7
S'\x00\x00\x00\x00\x00\x00\x00\x00'
p849
tp850
Rp851
aa(lp852
S'bgc8'
p853
aI47
aI4180
aI172868
aF1.3333333333333333
aI2
aI42
aI4445
ag3
(g7
S'\x00\x00\x00\x00\x00\x00\x00\x00'
p854
tp855
Rp856
aa(lp857
S'thevoice'
p858
aI46
aI2629
aI76941
aF1.3333333333333333
aI2
aI37
aI1333
ag3
(g7
S'\x00\x00\x00\x00\x00\x00\x00\x00'
p859
tp860
Rp861
aa(lp862
S'thestruggle'
p863
aI50
aI4031
aI141790
aF1.0
aI1
aI49
aI1144
ag3
(g7
S'\x00\x00\x00\x00\x00\x00\x00\x00'
p864
tp865
Rp866
aa(lp867
S'kuwait'
p868
aI41
aI720
aI6596
aF1.9333333333333333
aI3
aI33
aI662
ag3
(g7
S'\x00\x00\x00\x00\x00\x00\x00\x00'
p869
tp870
Rp871
aa(lp872
S'kindle'
p873
aI34
aI1448
aI34556
aF1.717241379310345
aI3
aI4
aI588
ag3
(g7
S'\x00\x00\x00\x00\x00\x00\x00\x00'
p874
tp875
Rp876
aa(lp877
S'teamnosleep'
p878
aI47
aI4025
aI168939
aF1.0
aI1
aI45
aI456
ag3
(g7
S'\x00\x00\x00\x00\x00\x00\x00\x00'
p879
tp880
Rp881
aa(lp882
S'mentionto'
p883
aI46
aI2817
aI43092
aF1.3333333333333333
aI2
aI37
aI1043
ag3
(g7
S'\x00\x00\x00\x00\x00\x00\x00\x00'
p884
tp885
Rp886
aa(lp887
S'bigtimerush'
p888
aI29
aI1417
aI40482
aF2.16017316017316
aI4
aI10
aI232
ag3
(g7
S'\x00\x00\x00\x00\x00\x00\x00\x00'
p889
tp890
Rp891
aa(lp892
S'ifollowback'
p893
aI38
aI2759
aI161026
a(lp894
aI0
aI37
aI381
ag3
(g7
S'\x00\x00\x00\x00\x00\x00\x00\x00'
p895
tp896
Rp897
aa(lp898
S'itscrazyhow'
p899
aI46
aI2019
aI104455
a(lp900
aI0
aI46
aI53087
ag3
(g7
S'\x00\x00\x00\x00\x00\x00\x00\x00'
p901
tp902
Rp903
aa(lp904
S'favmusic'
p905
aI29
aI1258
aI36186
aF2.1991341991341993
aI4
aI9
aI251
ag3
(g7
S'\x00\x00\x00\x00\x00\x00\x00\x00'
p906
tp907
Rp908
aa(lp909
S'music'
p910
aI29
aI2110
aI96012
aF1.8666666666666667
aI3
aI24
aI599
ag3
(g7
S'\x00\x00\x00\x00\x00\x00\x00\x00'
p911
tp912
Rp913
aa(lp914
S'nomanshouldever'
p915
aI48
aI2873
aI147949
aF1.8888888888888888
aI4
aI39
aI18660
ag3
(g7
S'\x00\x00\x00\x00\x00\x00\x00\x00'
p916
tp917
Rp918
aa(lp919
S'1000aday'
p920
aI40
aI2202
aI133248
aF1.0
aI1
aI37
aI298
ag3
(g7
S'\x00\x00\x00\x00\x00\x00\x00\x00'
p921
tp922
Rp923
aa(lp924
S'real'
p925
aI49
aI4633
aI165195
aF1.0
aI1
aI48
aI291
ag3
(g7
S'\x00\x00\x00\x00\x00\x00\x00\x00'
p926
tp927
Rp928
aa(lp929
S'mybiggestfearis'
p930
aI50
aI2722
aI121856
a(lp931
aI0
aI50
aI37993
ag3
(g7
S'\x00\x00\x00\x00\x00\x00\x00\x00'
p932
tp933
Rp934
aa(lp935
S'boss'
p936
aI46
aI3403
aI151573
aF1.0
aI1
aI45
aI741
ag3
(g7
S'\x00\x00\x00\x00\x00\x00\x00\x00'
p937
tp938
Rp939
aa(lp940
S'liestoldontwitter'
p941
aI49
aI3759
aI143059
aF1.0
aI1
aI47
aI539
ag3
(g7
S'\x00\x00\x00\x00\x00\x00\x00\x00'
p942
tp943
Rp944
aa(lp945
S'sometimesijustwant'
p946
aI48
aI2228
aI88466
aF1.0
aI1
aI46
aI7
ag3
(g7
S'\x00\x00\x00\x00\x00\x00\x00\x00'
p947
tp948
Rp949
aa(lp950
S'lmao'
p951
aI49
aI2427
aI102918
aF1.0
aI1
aI48
aI445
ag3
(g7
S'\x00\x00\x00\x00\x00\x00\x00\x00'
p952
tp953
Rp954
aa(lp955
S'obsessions'
p956
aI28
aI3194
aI119906
aF2.015810276679842
aI4
aI6
aI1235
ag3
(g7
S'\x00\x00\x00\x00\x00\x00\x00\x00'
p957
tp958
Rp959
aa(lp960
S'fuck'
p961
aI50
aI1872
aI95947
a(lp962
aI0
aI48
aI948
ag3
(g7
S'\x00\x00\x00\x00\x00\x00\x00\x00'
p963
tp964
Rp965
aa(lp966
S'thingsblackpeopletakeseriously'
p967
aI48
aI3454
aI161644
aF1.0
aI1
aI44
aI11
ag3
(g7
S'\x00\x00\x00\x00\x00\x00\x00\x00'
p968
tp969
Rp970
aa(lp971
S'thingsilovetosee'
p972
aI45
aI4168
aI183311
aF1.0
aI1
aI43
aI30
ag3
(g7
S'\x00\x00\x00\x00\x00\x00\x00\x00'
p973
tp974
Rp975
aa(lp976
S'thatsthetruth'
p977
aI50
aI2344
aI127120
aF1.0
aI1
aI47
aI39367
ag3
(g7
S'\x00\x00\x00\x00\x00\x00\x00\x00'
p978
tp979
Rp980
aa(lp981
S'amitheonlyonethat'
p982
aI48
aI2734
aI136685
aF1.3333333333333333
aI2
aI44
aI29660
ag3
(g7
S'\x00\x00\x00\x00\x00\x00\x00\x00'
p983
tp984
Rp985
aa(lp986
S'backinthedaywheniwasakid'
p987
aI40
aI1436
aI82995
aF1.9761904761904763
aI4
aI20
aI35
ag3
(g7
S'\x00\x00\x00\x00\x00\x00\x00\x00'
p988
tp989
Rp990
aa(lp991
S'lowkey'
p992
aI49
aI3507
aI127904
aF1.0
aI1
aI47
aI326
ag3
(g7
S'\x00\x00\x00\x00\x00\x00\x00\x00'
p993
tp994
Rp995
aa(lp996
S'girlfacts'
p997
aI47
aI1841
aI95747
a(lp998
aI0
aI47
aI1540
ag3
(g7
S'\x00\x00\x00\x00\x00\x00\x00\x00'
p999
tp1000
Rp1001
aa(lp1002
S'truestory'
p1003
aI50
aI2606
aI121542
aF1.0
aI1
aI48
aI625
ag3
(g7
S'\x00\x00\x00\x00\x00\x00\x00\x00'
p1004
tp1005
Rp1006
aa(lp1007
S'randomtweet'
p1008
aI50
aI4349
aI168573
aF1.0
aI1
aI48
aI730
ag3
(g7
S'\x00\x00\x00\x00\x00\x00\x00\x00'
p1009
tp1010
Rp1011
aa(lp1012
S'hardestthingsinlife'
p1013
aI46
aI3418
aI145049
a(lp1014
aI0
aI45
aI23
ag3
(g7
S'\x00\x00\x00\x00\x00\x00\x00\x00'
p1015
tp1016
Rp1017
aa(lp1018
S'life'
p1019
aI44
aI3294
aI132047
aF1.0
aI1
aI43
aI887
ag3
(g7
S'\x00\x00\x00\x00\x00\x00\x00\x00'
p1020
tp1021
Rp1022
aa(lp1023
S'photo'
p1024
aI20
aI497
aI20384
aF1.5128205128205128
aI3
aI8
aI601
ag3
(g7
S'\x00\x00\x00\x00\x00\x00\x00\x00'
p1025
tp1026
Rp1027
aa(lp1028
S'arentyoutiredof'
p1029
aI45
aI2715
aI137569
aF1.0
aI1
aI44
aI13
ag3
(g7
S'\x00\x00\x00\x00\x00\x00\x00\x00'
p1030
tp1031
Rp1032
aa(lp1033
S'fuckit'
p1034
aI50
aI2761
aI120921
aF1.0
aI1
aI49
aI400
ag3
(g7
S'\x00\x00\x00\x00\x00\x00\x00\x00'
p1035
tp1036
Rp1037
aa(lp1038
S'itsfunnyhow'
p1039
aI44
aI4350
aI187741
aF1.3333333333333333
aI2
aI39
aI16015
ag3
(g7
S'\x00\x00\x00\x00\x00\x00\x00\x00'
p1040
tp1041
Rp1042
aa.